target datalayout = "e-m:e-p270:32:32-p271:32:32-p272:64:64-i64:64-i128:128-f80:128-n8:16:32:64-S128"
target triple = "x86_64-pc-linux-gnu"

%struct.qdldl = type { i32, ptr, ptr, ptr, ptr, ptr, ptr, ptr, ptr, i64, ptr, ptr, ptr, ptr, ptr, ptr, double, double, i64, i64, i64, ptr, ptr, ptr, ptr, ptr, ptr, ptr, ptr, ptr, ptr, ptr }
%struct.OSQPCscMatrix = type { i64, i64, ptr, ptr, ptr, i64, i64 }
%struct.OSQPVectorf_ = type { ptr, i64 }

; Function Attrs: nounwind uwtable
define i64 @update_linsys_solver_rho_vec_qdldl(ptr noundef %0, ptr noundef %1, double noundef %2) #0 {
  %4 = alloca ptr, align 8
  %5 = alloca ptr, align 8
  %6 = alloca double, align 8
  %7 = alloca i64, align 8
  %8 = alloca i64, align 8
  %9 = alloca i64, align 8
  %10 = alloca ptr, align 8
  store ptr %0, ptr %4, align 8, !tbaa !3
  store ptr %1, ptr %5, align 8, !tbaa !9
  store double %2, ptr %6, align 8, !tbaa !46
  call void @llvm.lifetime.start.p0(i64 8, ptr %7) #7
  call void @llvm.lifetime.start.p0(i64 8, ptr %8) #7
  store i64 0, ptr %8, align 8, !tbaa !43
  call void @llvm.lifetime.start.p0(i64 8, ptr %9) #7
  %11 = load ptr, ptr %4, align 8, !tbaa !3
  %12 = getelementptr inbounds nuw %struct.qdldl, ptr %11, i32 0, i32 20
  %13 = load i64, ptr %12, align 8, !tbaa !52
  store i64 %13, ptr %9, align 8, !tbaa !43
  call void @llvm.lifetime.start.p0(i64 8, ptr %10) #7
  %14 = load ptr, ptr %4, align 8, !tbaa !3
  %15 = getelementptr inbounds nuw %struct.qdldl, ptr %14, i32 0, i32 15
  %16 = load ptr, ptr %15, align 8, !tbaa !27
  %17 = icmp ne ptr %16, null
  br i1 %17, label %18, label %41

18:                                               ; preds = %3
  %19 = load ptr, ptr %5, align 8, !tbaa !9
  %20 = getelementptr inbounds nuw %struct.OSQPVectorf_, ptr %19, i32 0, i32 0
  %21 = load ptr, ptr %20, align 8, !tbaa !68
  store ptr %21, ptr %10, align 8, !tbaa !70
  store i64 0, ptr %7, align 8, !tbaa !43
  br label %22

22:                                               ; preds = %37, %18
  %23 = load i64, ptr %7, align 8, !tbaa !43
  %24 = load i64, ptr %9, align 8, !tbaa !43
  %25 = icmp slt i64 %23, %24
  br i1 %25, label %26, label %40

26:                                               ; preds = %22
  %27 = load ptr, ptr %10, align 8, !tbaa !70
  %28 = load i64, ptr %7, align 8, !tbaa !43
  %29 = getelementptr inbounds double, ptr %27, i64 %28
  %30 = load double, ptr %29, align 8, !tbaa !46
  %31 = fdiv double 1.000000e+00, %30
  %32 = load ptr, ptr %4, align 8, !tbaa !3
  %33 = getelementptr inbounds nuw %struct.qdldl, ptr %32, i32 0, i32 15
  %34 = load ptr, ptr %33, align 8, !tbaa !27
  %35 = load i64, ptr %7, align 8, !tbaa !43
  %36 = getelementptr inbounds double, ptr %34, i64 %35
  store double %31, ptr %36, align 8, !tbaa !46
  br label %37

37:                                               ; preds = %26
  %38 = load i64, ptr %7, align 8, !tbaa !43
  %39 = add nsw i64 %38, 1
  store i64 %39, ptr %7, align 8, !tbaa !43
  br label %22, !llvm.loop !83

40:                                               ; preds = %22
  br label %46

41:                                               ; preds = %3
  %42 = load double, ptr %6, align 8, !tbaa !46
  %43 = fdiv double 1.000000e+00, %42
  %44 = load ptr, ptr %4, align 8, !tbaa !3
  %45 = getelementptr inbounds nuw %struct.qdldl, ptr %44, i32 0, i32 17
  store double %43, ptr %45, align 8, !tbaa !55
  br label %46

46:                                               ; preds = %41, %40
  %47 = load ptr, ptr %4, align 8, !tbaa !3
  %48 = getelementptr inbounds nuw %struct.qdldl, ptr %47, i32 0, i32 21
  %49 = load ptr, ptr %48, align 8, !tbaa !28
  %50 = load ptr, ptr %4, align 8, !tbaa !3
  %51 = getelementptr inbounds nuw %struct.qdldl, ptr %50, i32 0, i32 15
  %52 = load ptr, ptr %51, align 8, !tbaa !27
  %53 = load ptr, ptr %4, align 8, !tbaa !3
  %54 = getelementptr inbounds nuw %struct.qdldl, ptr %53, i32 0, i32 17
  %55 = load double, ptr %54, align 8, !tbaa !55
  %56 = load ptr, ptr %4, align 8, !tbaa !3
  %57 = getelementptr inbounds nuw %struct.qdldl, ptr %56, i32 0, i32 24
  %58 = load ptr, ptr %57, align 8, !tbaa !31
  %59 = load ptr, ptr %4, align 8, !tbaa !3
  %60 = getelementptr inbounds nuw %struct.qdldl, ptr %59, i32 0, i32 20
  %61 = load i64, ptr %60, align 8, !tbaa !52
  call void @update_KKT_param2(ptr noundef %49, ptr noundef %52, double noundef %55, ptr noundef %58, i64 noundef %61)
  %62 = load ptr, ptr %4, align 8, !tbaa !3
  %63 = getelementptr inbounds nuw %struct.qdldl, ptr %62, i32 0, i32 21
  %64 = load ptr, ptr %63, align 8, !tbaa !28
  %65 = getelementptr inbounds nuw %struct.OSQPCscMatrix, ptr %64, i32 0, i32 1
  %66 = load i64, ptr %65, align 8, !tbaa !49
  %67 = load ptr, ptr %4, align 8, !tbaa !3
  %68 = getelementptr inbounds nuw %struct.qdldl, ptr %67, i32 0, i32 21
  %69 = load ptr, ptr %68, align 8, !tbaa !28
  %70 = getelementptr inbounds nuw %struct.OSQPCscMatrix, ptr %69, i32 0, i32 2
  %71 = load ptr, ptr %70, align 8, !tbaa !19
  %72 = load ptr, ptr %4, align 8, !tbaa !3
  %73 = getelementptr inbounds nuw %struct.qdldl, ptr %72, i32 0, i32 21
  %74 = load ptr, ptr %73, align 8, !tbaa !28
  %75 = getelementptr inbounds nuw %struct.OSQPCscMatrix, ptr %74, i32 0, i32 3
  %76 = load ptr, ptr %75, align 8, !tbaa !21
  %77 = load ptr, ptr %4, align 8, !tbaa !3
  %78 = getelementptr inbounds nuw %struct.qdldl, ptr %77, i32 0, i32 21
  %79 = load ptr, ptr %78, align 8, !tbaa !28
  %80 = getelementptr inbounds nuw %struct.OSQPCscMatrix, ptr %79, i32 0, i32 4
  %81 = load ptr, ptr %80, align 8, !tbaa !22
  %82 = load ptr, ptr %4, align 8, !tbaa !3
  %83 = getelementptr inbounds nuw %struct.qdldl, ptr %82, i32 0, i32 10
  %84 = load ptr, ptr %83, align 8, !tbaa !11
  %85 = getelementptr inbounds nuw %struct.OSQPCscMatrix, ptr %84, i32 0, i32 2
  %86 = load ptr, ptr %85, align 8, !tbaa !19
  %87 = load ptr, ptr %4, align 8, !tbaa !3
  %88 = getelementptr inbounds nuw %struct.qdldl, ptr %87, i32 0, i32 10
  %89 = load ptr, ptr %88, align 8, !tbaa !11
  %90 = getelementptr inbounds nuw %struct.OSQPCscMatrix, ptr %89, i32 0, i32 3
  %91 = load ptr, ptr %90, align 8, !tbaa !21
  %92 = load ptr, ptr %4, align 8, !tbaa !3
  %93 = getelementptr inbounds nuw %struct.qdldl, ptr %92, i32 0, i32 10
  %94 = load ptr, ptr %93, align 8, !tbaa !11
  %95 = getelementptr inbounds nuw %struct.OSQPCscMatrix, ptr %94, i32 0, i32 4
  %96 = load ptr, ptr %95, align 8, !tbaa !22
  %97 = load ptr, ptr %4, align 8, !tbaa !3
  %98 = getelementptr inbounds nuw %struct.qdldl, ptr %97, i32 0, i32 25
  %99 = load ptr, ptr %98, align 8, !tbaa !33
  %100 = load ptr, ptr %4, align 8, !tbaa !3
  %101 = getelementptr inbounds nuw %struct.qdldl, ptr %100, i32 0, i32 11
  %102 = load ptr, ptr %101, align 8, !tbaa !24
  %103 = load ptr, ptr %4, align 8, !tbaa !3
  %104 = getelementptr inbounds nuw %struct.qdldl, ptr %103, i32 0, i32 27
  %105 = load ptr, ptr %104, align 8, !tbaa !35
  %106 = load ptr, ptr %4, align 8, !tbaa !3
  %107 = getelementptr inbounds nuw %struct.qdldl, ptr %106, i32 0, i32 26
  %108 = load ptr, ptr %107, align 8, !tbaa !34
  %109 = load ptr, ptr %4, align 8, !tbaa !3
  %110 = getelementptr inbounds nuw %struct.qdldl, ptr %109, i32 0, i32 29
  %111 = load ptr, ptr %110, align 8, !tbaa !37
  %112 = load ptr, ptr %4, align 8, !tbaa !3
  %113 = getelementptr inbounds nuw %struct.qdldl, ptr %112, i32 0, i32 28
  %114 = load ptr, ptr %113, align 8, !tbaa !36
  %115 = load ptr, ptr %4, align 8, !tbaa !3
  %116 = getelementptr inbounds nuw %struct.qdldl, ptr %115, i32 0, i32 30
  %117 = load ptr, ptr %116, align 8, !tbaa !38
  %118 = call i64 @QDLDL_factor(i64 noundef %66, ptr noundef %71, ptr noundef %76, ptr noundef %81, ptr noundef %86, ptr noundef %91, ptr noundef %96, ptr noundef %99, ptr noundef %102, ptr noundef %105, ptr noundef %108, ptr noundef %111, ptr noundef %114, ptr noundef %117)
  store i64 %118, ptr %8, align 8, !tbaa !43
  %119 = load i64, ptr %8, align 8, !tbaa !43
  %120 = icmp slt i64 %119, 0
  %121 = zext i1 %120 to i32
  %122 = sext i32 %121 to i64
  call void @llvm.lifetime.end.p0(i64 8, ptr %10) #7
  call void @llvm.lifetime.end.p0(i64 8, ptr %9) #7
  call void @llvm.lifetime.end.p0(i64 8, ptr %8) #7
  call void @llvm.lifetime.end.p0(i64 8, ptr %7) #7
  ret i64 %122
}