; Function Attrs: nounwind uwtable
define range(i64 0, 2) i64 @update_linsys_solver_rho_vec_qdldl(ptr noundef captures(none) %0, ptr noundef readonly captures(none) %1, double noundef %2) #1 {
  %4 = getelementptr inbounds nuw i8, ptr %0, i64 160
  %5 = load i64, ptr %4, align 8, !tbaa !43
  %6 = getelementptr inbounds nuw i8, ptr %0, i64 120
  %7 = load ptr, ptr %6, align 8, !tbaa !22
  %.not = icmp eq ptr %7, null
  br i1 %.not, label %16, label %8

8:                                                ; preds = %3
  %9 = load ptr, ptr %1, align 8, !tbaa !61
  %10 = icmp sgt i64 %5, 0
  br i1 %10, label %.lr.ph, label %.loopexit

.lr.ph:                                           ; preds = %8, %.lr.ph
  %.031 = phi i64 [ %15, %.lr.ph ], [ 0, %8 ]
  %11 = getelementptr inbounds nuw double, ptr %9, i64 %.031
  %12 = load double, ptr %11, align 8, !tbaa !63
  %13 = fdiv double 1.000000e+00, %12
  %14 = getelementptr inbounds nuw double, ptr %7, i64 %.031
  store double %13, ptr %14, align 8, !tbaa !63
  %15 = add nuw nsw i64 %.031, 1
  %exitcond.not = icmp eq i64 %15, %5
  br i1 %exitcond.not, label %.loopexit, label %.lr.ph, !llvm.loop !87

16:                                               ; preds = %3
  %17 = fdiv double 1.000000e+00, %2
  %18 = getelementptr inbounds nuw i8, ptr %0, i64 136
  store double %17, ptr %18, align 8, !tbaa !46
  br label %.loopexit

.loopexit:                                        ; preds = %.lr.ph, %8, %16
  %19 = getelementptr inbounds nuw i8, ptr %0, i64 168
  %20 = load ptr, ptr %19, align 8, !tbaa !23
  %21 = getelementptr inbounds nuw i8, ptr %0, i64 136
  %22 = load double, ptr %21, align 8, !tbaa !46
  %23 = getelementptr inbounds nuw i8, ptr %0, i64 192
  %24 = load ptr, ptr %23, align 8, !tbaa !26
  tail call void @update_KKT_param2(ptr noundef %20, ptr noundef %7, double noundef %22, ptr noundef %24, i64 noundef %5) #12
  %25 = load ptr, ptr %19, align 8, !tbaa !23
  %26 = getelementptr inbounds nuw i8, ptr %25, i64 8
  %27 = load i64, ptr %26, align 8, !tbaa !40
  %28 = getelementptr inbounds nuw i8, ptr %25, i64 16
  %29 = load ptr, ptr %28, align 8, !tbaa !14
  %30 = getelementptr inbounds nuw i8, ptr %25, i64 24
  %31 = load ptr, ptr %30, align 8, !tbaa !16
  %32 = getelementptr inbounds nuw i8, ptr %25, i64 32
  %33 = load ptr, ptr %32, align 8, !tbaa !17
  %34 = getelementptr inbounds nuw i8, ptr %0, i64 80
  %35 = load ptr, ptr %34, align 8, !tbaa !3
  %36 = getelementptr inbounds nuw i8, ptr %35, i64 16
  %37 = load ptr, ptr %36, align 8, !tbaa !14
  %38 = getelementptr inbounds nuw i8, ptr %35, i64 24
  %39 = load ptr, ptr %38, align 8, !tbaa !16
  %40 = getelementptr inbounds nuw i8, ptr %35, i64 32
  %41 = load ptr, ptr %40, align 8, !tbaa !17
  %42 = getelementptr inbounds nuw i8, ptr %0, i64 200
  %43 = load ptr, ptr %42, align 8, !tbaa !28
  %44 = getelementptr inbounds nuw i8, ptr %0, i64 88
  %45 = load ptr, ptr %44, align 8, !tbaa !19
  %46 = getelementptr inbounds nuw i8, ptr %0, i64 216
  %47 = load ptr, ptr %46, align 8, !tbaa !30
  %48 = getelementptr inbounds nuw i8, ptr %0, i64 208
  %49 = load ptr, ptr %48, align 8, !tbaa !29
  %50 = getelementptr inbounds nuw i8, ptr %0, i64 232
  %51 = load ptr, ptr %50, align 8, !tbaa !32
  %52 = getelementptr inbounds nuw i8, ptr %0, i64 224
  %53 = load ptr, ptr %52, align 8, !tbaa !31
  %54 = getelementptr inbounds nuw i8, ptr %0, i64 240
  %55 = load ptr, ptr %54, align 8, !tbaa !33
  %56 = tail call i64 @QDLDL_factor(i64 noundef %27, ptr noundef %29, ptr noundef %31, ptr noundef %33, ptr noundef %37, ptr noundef %39, ptr noundef %41, ptr noundef %43, ptr noundef %45, ptr noundef %47, ptr noundef %49, ptr noundef %51, ptr noundef %53, ptr noundef %55) #12
  %.lobit = lshr i64 %56, 63
  ret i64 %.lobit
}